target datalayout = "e-m:e-p270:32:32-p271:32:32-p272:64:64-i64:64-i128:128-f80:128-n8:16:32:64-S128"
target triple = "x86_64-pc-linux-gnu"

; Function Attrs: nounwind uwtable
define internal i32 @_rng_test(ptr noundef %0) #0 {
  %2 = alloca i32, align 4
  %3 = alloca ptr, align 8
  %4 = alloca [32 x i8], align 16
  %5 = alloca i32, align 4
  %6 = alloca i32, align 4
  %7 = alloca i32, align 4
  store ptr %0, ptr %3, align 8, !tbaa !123
  call void @llvm.lifetime.start.p0(i64 32, ptr %4) #10
  call void @llvm.lifetime.start.p0(i64 4, ptr %5) #10
  call void @llvm.lifetime.start.p0(i64 4, ptr %6) #10
  %8 = getelementptr inbounds [32 x i8], ptr %4, i64 0, i64 0
  call void @llvm.memset.p0.i64(ptr align 16 %8, i8 0, i64 32, i1 false)
  %9 = load ptr, ptr %3, align 8, !tbaa !123
  %10 = getelementptr inbounds [32 x i8], ptr %4, i64 0, i64 0
  %11 = call i32 @wc_RNG_GenerateBlock(ptr noundef %9, ptr noundef %10, i32 noundef 32)
  store i32 %11, ptr %5, align 4, !tbaa !14
  %12 = load i32, ptr %5, align 4, !tbaa !14
  %13 = icmp ne i32 %12, 0
  br i1 %13, label %14, label %26

14:                                               ; preds = %1
  %15 = load i32, ptr %5, align 4, !tbaa !14
  %16 = sub nsw i32 0, %15
  %17 = zext i32 %16 to i64
  %18 = and i64 %17, 2047
  %19 = trunc i64 %18 to i32
  %20 = sext i32 %19 to i64
  %21 = mul nsw i64 %20, 100000
  %22 = add nsw i64 17980, %21
  %23 = add nsw i64 %22, 536870912
  %24 = sub nsw i64 0, %23
  %25 = trunc i64 %24 to i32
  store i32 %25, ptr %2, align 4
  store i32 1, ptr %7, align 4
  br label %135

26:                                               ; preds = %1
  store i32 0, ptr %6, align 4, !tbaa !14
  br label %27

27:                                               ; preds = %41, %26
  %28 = load i32, ptr %6, align 4, !tbaa !14
  %29 = icmp slt i32 %28, 32
  br i1 %29, label %30, label %44

30:                                               ; preds = %27
  %31 = load i32, ptr %6, align 4, !tbaa !14
  %32 = sext i32 %31 to i64
  %33 = getelementptr inbounds [32 x i8], ptr %4, i64 0, i64 %32
  %34 = load i8, ptr %33, align 1, !tbaa !24
  %35 = zext i8 %34 to i32
  %36 = icmp eq i32 %35, 0
  br i1 %36, label %37, label %40

37:                                               ; preds = %30
  %38 = load i32, ptr %5, align 4, !tbaa !14
  %39 = add nsw i32 %38, 1
  store i32 %39, ptr %5, align 4, !tbaa !14
  br label %40

40:                                               ; preds = %37, %30
  br label %41

41:                                               ; preds = %40
  %42 = load i32, ptr %6, align 4, !tbaa !14
  %43 = add nsw i32 %42, 1
  store i32 %43, ptr %6, align 4, !tbaa !14
  br label %27, !llvm.loop !179

44:                                               ; preds = %27
  %45 = load i32, ptr %5, align 4, !tbaa !14
  %46 = icmp sge i32 %45, 32
  br i1 %46, label %47, label %48

47:                                               ; preds = %44
  store i32 -17991, ptr %2, align 4
  store i32 1, ptr %7, align 4
  br label %135

48:                                               ; preds = %44
  %49 = load ptr, ptr %3, align 8, !tbaa !123
  %50 = getelementptr inbounds [32 x i8], ptr %4, i64 0, i64 0
  %51 = call i32 @wc_RNG_GenerateByte(ptr noundef %49, ptr noundef %50)
  store i32 %51, ptr %5, align 4, !tbaa !14
  %52 = load i32, ptr %5, align 4, !tbaa !14
  %53 = icmp ne i32 %52, 0
  br i1 %53, label %54, label %66

54:                                               ; preds = %48
  %55 = load i32, ptr %5, align 4, !tbaa !14
  %56 = sub nsw i32 0, %55
  %57 = zext i32 %56 to i64
  %58 = and i64 %57, 2047
  %59 = trunc i64 %58 to i32
  %60 = sext i32 %59 to i64
  %61 = mul nsw i64 %60, 100000
  %62 = add nsw i64 17996, %61
  %63 = add nsw i64 %62, 536870912
  %64 = sub nsw i64 0, %63
  %65 = trunc i64 %64 to i32
  store i32 %65, ptr %2, align 4
  store i32 1, ptr %7, align 4
  br label %135

66:                                               ; preds = %48
  %67 = getelementptr inbounds [32 x i8], ptr %4, i64 0, i64 0
  %68 = call i32 @wc_RNG_GenerateBlock(ptr noundef null, ptr noundef %67, i32 noundef 32)
  store i32 %68, ptr %5, align 4, !tbaa !14
  %69 = load i32, ptr %5, align 4, !tbaa !14
  %70 = icmp ne i32 %69, -173
  br i1 %70, label %71, label %83

71:                                               ; preds = %66
  %72 = load i32, ptr %5, align 4, !tbaa !14
  %73 = sub nsw i32 0, %72
  %74 = zext i32 %73 to i64
  %75 = and i64 %74, 2047
  %76 = trunc i64 %75 to i32
  %77 = sext i32 %76 to i64
  %78 = mul nsw i64 %77, 100000
  %79 = add nsw i64 18002, %78
  %80 = add nsw i64 %79, 536870912
  %81 = sub nsw i64 0, %80
  %82 = trunc i64 %81 to i32
  store i32 %82, ptr %2, align 4
  store i32 1, ptr %7, align 4
  br label %135

83:                                               ; preds = %66
  %84 = load ptr, ptr %3, align 8, !tbaa !123
  %85 = call i32 @wc_RNG_GenerateBlock(ptr noundef %84, ptr noundef null, i32 noundef 32)
  store i32 %85, ptr %5, align 4, !tbaa !14
  %86 = load i32, ptr %5, align 4, !tbaa !14
  %87 = icmp ne i32 %86, -173
  br i1 %87, label %88, label %100

88:                                               ; preds = %83
  %89 = load i32, ptr %5, align 4, !tbaa !14
  %90 = sub nsw i32 0, %89
  %91 = zext i32 %90 to i64
  %92 = and i64 %91, 2047
  %93 = trunc i64 %92 to i32
  %94 = sext i32 %93 to i64
  %95 = mul nsw i64 %94, 100000
  %96 = add nsw i64 18006, %95
  %97 = add nsw i64 %96, 536870912
  %98 = sub nsw i64 0, %97
  %99 = trunc i64 %98 to i32
  store i32 %99, ptr %2, align 4
  store i32 1, ptr %7, align 4
  br label %135

100:                                              ; preds = %83
  %101 = getelementptr inbounds [32 x i8], ptr %4, i64 0, i64 0
  %102 = call i32 @wc_RNG_GenerateByte(ptr noundef null, ptr noundef %101)
  store i32 %102, ptr %5, align 4, !tbaa !14
  %103 = load i32, ptr %5, align 4, !tbaa !14
  %104 = icmp ne i32 %103, -173
  br i1 %104, label %105, label %117

105:                                              ; preds = %100
  %106 = load i32, ptr %5, align 4, !tbaa !14
  %107 = sub nsw i32 0, %106
  %108 = zext i32 %107 to i64
  %109 = and i64 %108, 2047
  %110 = trunc i64 %109 to i32
  %111 = sext i32 %110 to i64
  %112 = mul nsw i64 %111, 100000
  %113 = add nsw i64 18011, %112
  %114 = add nsw i64 %113, 536870912
  %115 = sub nsw i64 0, %114
  %116 = trunc i64 %115 to i32
  store i32 %116, ptr %2, align 4
  store i32 1, ptr %7, align 4
  br label %135

117:                                              ; preds = %100
  %118 = load ptr, ptr %3, align 8, !tbaa !123
  %119 = call i32 @wc_RNG_GenerateByte(ptr noundef %118, ptr noundef null)
  store i32 %119, ptr %5, align 4, !tbaa !14
  %120 = load i32, ptr %5, align 4, !tbaa !14
  %121 = icmp ne i32 %120, -173
  br i1 %121, label %122, label %134

122:                                              ; preds = %117
  %123 = load i32, ptr %5, align 4, !tbaa !14
  %124 = sub nsw i32 0, %123
  %125 = zext i32 %124 to i64
  %126 = and i64 %125, 2047
  %127 = trunc i64 %126 to i32
  %128 = sext i32 %127 to i64
  %129 = mul nsw i64 %128, 100000
  %130 = add nsw i64 18015, %129
  %131 = add nsw i64 %130, 536870912
  %132 = sub nsw i64 0, %131
  %133 = trunc i64 %132 to i32
  store i32 %133, ptr %2, align 4
  store i32 1, ptr %7, align 4
  br label %135

134:                                              ; preds = %117
  store i32 0, ptr %2, align 4
  store i32 1, ptr %7, align 4
  br label %135

135:                                              ; preds = %134, %122, %105, %88, %71, %54, %47, %14
  call void @llvm.lifetime.end.p0(i64 4, ptr %6) #10
  call void @llvm.lifetime.end.p0(i64 4, ptr %5) #10
  call void @llvm.lifetime.end.p0(i64 32, ptr %4) #10
  %136 = load i32, ptr %2, align 4
  ret i32 %136
}