; Function Attrs: nounwind uwtable
define internal fastcc range(i32 -741588927, 1) i32 @_rng_test(ptr noundef %0) unnamed_addr #0 {
  %2 = alloca [32 x i8], align 16
  call void @llvm.lifetime.start.p0(i64 32, ptr nonnull %2) #19
  call void @llvm.memset.p0.i64(ptr noundef nonnull align 16 dereferenceable(32) %2, i8 0, i64 32, i1 false)
  %3 = call i32 @wc_RNG_GenerateBlock(ptr noundef %0, ptr noundef nonnull %2, i32 noundef 32) #19
  %.not = icmp eq i32 %3, 0
  br i1 %.not, label %.preheader, label %4

4:                                                ; preds = %1
  %5 = sub nsw i32 0, %3
  %6 = and i32 %5, 2047
  %narrow.neg51 = mul nsw i32 %6, -100000
  %7 = add nsw i32 %narrow.neg51, -536888892
  br label %44

.preheader:                                       ; preds = %1, %.preheader
  %indvars.iv = phi i64 [ %indvars.iv.next, %.preheader ], [ 0, %1 ]
  %.02152 = phi i32 [ %spec.select, %.preheader ], [ 0, %1 ]
  %8 = getelementptr inbounds nuw [32 x i8], ptr %2, i64 0, i64 %indvars.iv
  %9 = load i8, ptr %8, align 1, !tbaa !19
  %10 = icmp eq i8 %9, 0
  %11 = zext i1 %10 to i32
  %spec.select = add nuw nsw i32 %.02152, %11
  %indvars.iv.next = add nuw nsw i64 %indvars.iv, 1
  %exitcond.not = icmp eq i64 %indvars.iv.next, 32
  br i1 %exitcond.not, label %12, label %.preheader, !llvm.loop !167

12:                                               ; preds = %.preheader
  %13 = icmp samesign ugt i32 %spec.select, 31
  br i1 %13, label %44, label %14

14:                                               ; preds = %12
  %15 = call i32 @wc_RNG_GenerateByte(ptr noundef %0, ptr noundef nonnull %2) #19
  %.not30 = icmp eq i32 %15, 0
  br i1 %.not30, label %20, label %16

16:                                               ; preds = %14
  %17 = sub nsw i32 0, %15
  %18 = and i32 %17, 2047
  %narrow.neg48 = mul nsw i32 %18, -100000
  %19 = add nsw i32 %narrow.neg48, -536888908
  br label %44

20:                                               ; preds = %14
  %21 = call i32 @wc_RNG_GenerateBlock(ptr noundef null, ptr noundef nonnull %2, i32 noundef 32) #19
  %.not31 = icmp eq i32 %21, -173
  br i1 %.not31, label %26, label %22

22:                                               ; preds = %20
  %23 = sub nsw i32 0, %21
  %24 = and i32 %23, 2047
  %narrow.neg45 = mul nsw i32 %24, -100000
  %25 = add nsw i32 %narrow.neg45, -536888914
  br label %44

26:                                               ; preds = %20
  %27 = call i32 @wc_RNG_GenerateBlock(ptr noundef %0, ptr noundef null, i32 noundef 32) #19
  %.not32 = icmp eq i32 %27, -173
  br i1 %.not32, label %32, label %28

28:                                               ; preds = %26
  %29 = sub nsw i32 0, %27
  %30 = and i32 %29, 2047
  %narrow.neg42 = mul nsw i32 %30, -100000
  %31 = add nsw i32 %narrow.neg42, -536888918
  br label %44

32:                                               ; preds = %26
  %33 = call i32 @wc_RNG_GenerateByte(ptr noundef null, ptr noundef nonnull %2) #19
  %.not33 = icmp eq i32 %33, -173
  br i1 %.not33, label %38, label %34

34:                                               ; preds = %32
  %35 = sub nsw i32 0, %33
  %36 = and i32 %35, 2047
  %narrow.neg39 = mul nsw i32 %36, -100000
  %37 = add nsw i32 %narrow.neg39, -536888923
  br label %44

38:                                               ; preds = %32
  %39 = call i32 @wc_RNG_GenerateByte(ptr noundef %0, ptr noundef null) #19
  %.not34 = icmp eq i32 %39, -173
  br i1 %.not34, label %44, label %40

40:                                               ; preds = %38
  %41 = sub nsw i32 0, %39
  %42 = and i32 %41, 2047
  %narrow.neg = mul nsw i32 %42, -100000
  %43 = add nsw i32 %narrow.neg, -536888927
  br label %44

44:                                               ; preds = %38, %12, %40, %34, %28, %22, %16, %4
  %.022 = phi i32 [ %7, %4 ], [ %19, %16 ], [ %25, %22 ], [ %31, %28 ], [ %37, %34 ], [ %43, %40 ], [ -17991, %12 ], [ 0, %38 ]
  call void @llvm.lifetime.end.p0(i64 32, ptr nonnull %2) #19
  ret i32 %.022
}